target datalayout = "e-m:e-p270:32:32-p271:32:32-p272:64:64-i64:64-i128:128-f80:128-n8:16:32:64-S128"
target triple = "x86_64-pc-linux-gnu"

@zend_autoload = external global ptr, align 8

; Function Attrs: nounwind uwtable
define hidden i32 @zm_startup_spl(i32 noundef %0, i32 noundef %1) #0 {
  %3 = alloca i32, align 4
  %4 = alloca i32, align 4
  store i32 %0, ptr %3, align 4, !tbaa !56
  store i32 %1, ptr %4, align 4, !tbaa !56
  store ptr @spl_perform_autoload, ptr @zend_autoload, align 8, !tbaa !61
  %5 = load i32, ptr %3, align 4, !tbaa !56
  %6 = load i32, ptr %4, align 4, !tbaa !56
  %7 = call i32 @zm_startup_spl_exceptions(i32 noundef %5, i32 noundef %6)
  %8 = load i32, ptr %3, align 4, !tbaa !56
  %9 = load i32, ptr %4, align 4, !tbaa !56
  %10 = call i32 @zm_startup_spl_iterators(i32 noundef %8, i32 noundef %9)
  %11 = load i32, ptr %3, align 4, !tbaa !56
  %12 = load i32, ptr %4, align 4, !tbaa !56
  %13 = call i32 @zm_startup_spl_array(i32 noundef %11, i32 noundef %12)
  %14 = load i32, ptr %3, align 4, !tbaa !56
  %15 = load i32, ptr %4, align 4, !tbaa !56
  %16 = call i32 @zm_startup_spl_directory(i32 noundef %14, i32 noundef %15)
  %17 = load i32, ptr %3, align 4, !tbaa !56
  %18 = load i32, ptr %4, align 4, !tbaa !56
  %19 = call i32 @zm_startup_spl_dllist(i32 noundef %17, i32 noundef %18)
  %20 = load i32, ptr %3, align 4, !tbaa !56
  %21 = load i32, ptr %4, align 4, !tbaa !56
  %22 = call i32 @zm_startup_spl_heap(i32 noundef %20, i32 noundef %21)
  %23 = load i32, ptr %3, align 4, !tbaa !56
  %24 = load i32, ptr %4, align 4, !tbaa !56
  %25 = call i32 @zm_startup_spl_fixedarray(i32 noundef %23, i32 noundef %24)
  %26 = load i32, ptr %3, align 4, !tbaa !56
  %27 = load i32, ptr %4, align 4, !tbaa !56
  %28 = call i32 @zm_startup_spl_observer(i32 noundef %26, i32 noundef %27)
  ret i32 0
}