; Function Attrs: nounwind uwtable
define hidden noundef i32 @zm_startup_spl(i32 noundef %0, i32 noundef %1) #0 {
  store ptr @spl_perform_autoload, ptr @zend_autoload, align 8, !tbaa !59
  %3 = tail call i32 @zm_startup_spl_exceptions(i32 noundef %0, i32 noundef %1) #10
  %4 = tail call i32 @zm_startup_spl_iterators(i32 noundef %0, i32 noundef %1) #10
  %5 = tail call i32 @zm_startup_spl_array(i32 noundef %0, i32 noundef %1) #10
  %6 = tail call i32 @zm_startup_spl_directory(i32 noundef %0, i32 noundef %1) #10
  %7 = tail call i32 @zm_startup_spl_dllist(i32 noundef %0, i32 noundef %1) #10
  %8 = tail call i32 @zm_startup_spl_heap(i32 noundef %0, i32 noundef %1) #10
  %9 = tail call i32 @zm_startup_spl_fixedarray(i32 noundef %0, i32 noundef %1) #10
  %10 = tail call i32 @zm_startup_spl_observer(i32 noundef %0, i32 noundef %1) #10
  ret i32 0
}